target datalayout = "e-m:e-p270:32:32-p271:32:32-p272:64:64-i64:64-i128:128-f80:128-n8:16:32:64-S128"
target triple = "x86_64-pc-linux-gnu"

%struct.AVRational = type { i32, i32 }
%struct.MatroskaMuxContext = type { ptr, ptr, i32, %struct.ebml_stored_master, %struct.ebml_stored_master, %struct.ebml_stored_master, i64, ptr, i64, i64, i64, i64, ptr, %struct.mkv_seekhead, %struct.mkv_cues, i64, %struct.BlockContext, ptr, ptr, i32, i32, i32, i32, i32, i32, i64, i32, i32, i32, i32, i32, i32, i32, i32, [4 x i32] }
%struct.ebml_stored_master = type { ptr, i64 }
%struct.mkv_seekhead = type { i64, [7 x %struct.mkv_seekhead_entry], i32, i32 }
%struct.mkv_seekhead_entry = type { i32, i64 }
%struct.mkv_cues = type { ptr, i32 }
%struct.BlockContext = type { ptr, ptr, i16, i8, %struct.NALUList }
%struct.NALUList = type { ptr, i32, i32 }
%struct.AVCodecParameters = type { i32, i32, i32, ptr, i32, ptr, i32, i32, i64, i32, i32, i32, i32, i32, i32, %struct.AVRational, %struct.AVRational, i32, i32, i32, i32, i32, i32, i32, %struct.AVChannelLayout, i32, i32, i32, i32, i32, i32 }
%struct.AVChannelLayout = type { i32, i32, %union.anon.0, ptr }
%union.anon.0 = type { i64 }
%struct.mkv_track = type { i32, i32, i64, i32, i32, i32, i32, i64, i64, i64, i64, i64, i64, i32, i32, i64, i64, i64, ptr }

; Function Attrs: nounwind uwtable
define internal i32 @mkv_update_codecprivate(ptr noundef %0, ptr noundef %1, ptr noundef %2, i32 noundef %3, ptr noundef %4, ptr noundef %5, ptr noundef %6, i32 noundef %7) #0 {
  %9 = alloca ptr, align 8
  %10 = alloca ptr, align 8
  %11 = alloca ptr, align 8
  %12 = alloca i32, align 4
  %13 = alloca ptr, align 8
  %14 = alloca ptr, align 8
  %15 = alloca ptr, align 8
  %16 = alloca i32, align 4
  %17 = alloca ptr, align 8
  %18 = alloca ptr, align 8
  %19 = alloca i32, align 4
  %20 = alloca i32, align 4
  %21 = alloca i32, align 4
  store ptr %0, ptr %9, align 8, !tbaa !4
  store ptr %1, ptr %10, align 8, !tbaa !26
  store ptr %2, ptr %11, align 8, !tbaa !134
  store i32 %3, ptr %12, align 4, !tbaa !30
  store ptr %4, ptr %13, align 8, !tbaa !118
  store ptr %5, ptr %14, align 8, !tbaa !29
  store ptr %6, ptr %15, align 8, !tbaa !88
  store i32 %7, ptr %16, align 4, !tbaa !30
  call void @llvm.lifetime.start.p0(i64 8, ptr %17) #16
  %22 = load ptr, ptr %10, align 8, !tbaa !26
  %23 = getelementptr inbounds nuw %struct.MatroskaMuxContext, ptr %22, i32 0, i32 17
  %24 = load ptr, ptr %23, align 8, !tbaa !81
  store ptr %24, ptr %17, align 8, !tbaa !29
  call void @llvm.lifetime.start.p0(i64 8, ptr %18) #16
  call void @llvm.lifetime.start.p0(i64 4, ptr %19) #16
  call void @llvm.lifetime.start.p0(i64 4, ptr %20) #16
  call void @llvm.lifetime.start.p0(i64 4, ptr %21) #16
  %25 = load ptr, ptr %9, align 8, !tbaa !4
  %26 = load ptr, ptr %17, align 8, !tbaa !29
  %27 = load ptr, ptr %13, align 8, !tbaa !118
  %28 = load ptr, ptr %11, align 8, !tbaa !134
  %29 = load i32, ptr %12, align 4, !tbaa !30
  %30 = call i32 @mkv_assemble_codecprivate(ptr noundef %25, ptr noundef %26, ptr noundef %27, ptr noundef %28, i32 noundef %29, i32 noundef 1, i32 noundef 0, ptr noundef %18, ptr noundef %21, ptr noundef %19)
  store i32 %30, ptr %20, align 4, !tbaa !30
  %31 = load i32, ptr %20, align 4, !tbaa !30
  %32 = icmp slt i32 %31, 0
  br i1 %32, label %33, label %34

33:                                               ; preds = %8
  br label %85

34:                                               ; preds = %8
  %35 = load i32, ptr %21, align 4, !tbaa !30
  %36 = load ptr, ptr %15, align 8, !tbaa !88
  %37 = getelementptr inbounds nuw %struct.mkv_track, ptr %36, i32 0, i32 14
  %38 = load i32, ptr %37, align 4, !tbaa !248
  %39 = icmp ugt i32 %35, %38
  br i1 %39, label %40, label %44

40:                                               ; preds = %34
  %41 = load i32, ptr %16, align 4, !tbaa !30
  %42 = icmp ne i32 %41, 0
  br i1 %42, label %44, label %43

43:                                               ; preds = %40
  store i32 -28, ptr %20, align 4, !tbaa !30
  br label %85

44:                                               ; preds = %40, %34
  %45 = load i32, ptr %21, align 4, !tbaa !30
  %46 = load ptr, ptr %15, align 8, !tbaa !88
  %47 = getelementptr inbounds nuw %struct.mkv_track, ptr %46, i32 0, i32 14
  %48 = load i32, ptr %47, align 4, !tbaa !248
  %49 = icmp ugt i32 %45, %48
  br i1 %49, label %50, label %52

50:                                               ; preds = %44
  %51 = load i32, ptr %16, align 4, !tbaa !30
  store i32 %51, ptr %21, align 4, !tbaa !30
  br label %52

52:                                               ; preds = %50, %44
  br label %53

53:                                               ; preds = %52
  %54 = load ptr, ptr %14, align 8, !tbaa !29
  %55 = load ptr, ptr %15, align 8, !tbaa !88
  %56 = getelementptr inbounds nuw %struct.mkv_track, ptr %55, i32 0, i32 13
  %57 = load i32, ptr %56, align 8, !tbaa !247
  %58 = sext i32 %57 to i64
  %59 = call i64 @avio_seek(ptr noundef %54, i64 noundef %58, i32 noundef 0)
  %60 = load ptr, ptr %14, align 8, !tbaa !29
  %61 = load ptr, ptr %15, align 8, !tbaa !88
  %62 = getelementptr inbounds nuw %struct.mkv_track, ptr %61, i32 0, i32 14
  %63 = load i32, ptr %62, align 4, !tbaa !248
  %64 = load ptr, ptr %18, align 8, !tbaa !134
  %65 = load i32, ptr %21, align 4, !tbaa !30
  call void @mkv_put_codecprivate(ptr noundef %60, i32 noundef %63, ptr noundef %64, i32 noundef %65)
  %66 = load ptr, ptr %13, align 8, !tbaa !118
  %67 = getelementptr inbounds nuw %struct.AVCodecParameters, ptr %66, i32 0, i32 4
  %68 = load i32, ptr %67, align 8, !tbaa !120
  %69 = icmp ne i32 %68, 0
  br i1 %69, label %84, label %70

70:                                               ; preds = %53
  %71 = load ptr, ptr %13, align 8, !tbaa !118
  %72 = load i32, ptr %12, align 4, !tbaa !30
  %73 = call i32 @ff_alloc_extradata(ptr noundef %71, i32 noundef %72)
  store i32 %73, ptr %20, align 4, !tbaa !30
  %74 = load i32, ptr %20, align 4, !tbaa !30
  %75 = icmp slt i32 %74, 0
  br i1 %75, label %76, label %77

76:                                               ; preds = %70
  br label %85

77:                                               ; preds = %70
  %78 = load ptr, ptr %13, align 8, !tbaa !118
  %79 = getelementptr inbounds nuw %struct.AVCodecParameters, ptr %78, i32 0, i32 3
  %80 = load ptr, ptr %79, align 8, !tbaa !121
  %81 = load ptr, ptr %11, align 8, !tbaa !134
  %82 = load i32, ptr %12, align 4, !tbaa !30
  %83 = sext i32 %82 to i64
  call void @llvm.memcpy.p0.p0.i64(ptr align 1 %80, ptr align 1 %81, i64 %83, i1 false)
  br label %84

84:                                               ; preds = %77, %53
  br label %85

85:                                               ; preds = %84, %76, %43, %33
  %86 = load ptr, ptr %17, align 8, !tbaa !29
  call void @ffio_reset_dyn_buf(ptr noundef %86)
  %87 = load i32, ptr %20, align 4, !tbaa !30
  call void @llvm.lifetime.end.p0(i64 4, ptr %21) #16
  call void @llvm.lifetime.end.p0(i64 4, ptr %20) #16
  call void @llvm.lifetime.end.p0(i64 4, ptr %19) #16
  call void @llvm.lifetime.end.p0(i64 8, ptr %18) #16
  call void @llvm.lifetime.end.p0(i64 8, ptr %17) #16
  ret i32 %87
}