; Function Attrs: nounwind uwtable
define internal fastcc i32 @mkv_update_codecprivate(ptr noundef %0, ptr %.320.val, ptr noundef %1, i32 noundef %2, ptr noundef %3, ptr noundef %4, ptr noundef readonly captures(none) %5, i32 noundef range(i32 0, 5) %6) unnamed_addr #0 {
  %8 = alloca ptr, align 8
  %9 = alloca i32, align 4
  %10 = alloca i32, align 4
  call void @llvm.lifetime.start.p0(i64 8, ptr nonnull %8) #14
  call void @llvm.lifetime.start.p0(i64 4, ptr nonnull %9) #14
  call void @llvm.lifetime.start.p0(i64 4, ptr nonnull %10) #14
  %11 = call fastcc i32 @mkv_assemble_codecprivate(ptr noundef %0, ptr noundef %.320.val, ptr noundef %3, ptr noundef %1, i32 noundef %2, i32 noundef 1, i32 noundef 0, ptr noundef %8, ptr noundef %10, ptr noundef %9)
  %12 = icmp slt i32 %11, 0
  br i1 %12, label %36, label %13

13:                                               ; preds = %7
  %14 = load i32, ptr %10, align 4, !tbaa !139
  %15 = getelementptr inbounds nuw i8, ptr %5, i64 84
  %16 = load i32, ptr %15, align 4, !tbaa !183
  %17 = icmp ule i32 %14, %16
  %18 = icmp ne i32 %6, 0
  %or.cond = or i1 %18, %17
  br i1 %or.cond, label %19, label %36

19:                                               ; preds = %13
  %20 = icmp ugt i32 %14, %16
  %spec.select = select i1 %20, i32 %6, i32 %14
  %21 = getelementptr inbounds nuw i8, ptr %5, i64 80
  %22 = load i32, ptr %21, align 8, !tbaa !181
  %23 = sext i32 %22 to i64
  %24 = call i64 @avio_seek(ptr noundef %4, i64 noundef %23, i32 noundef 0) #14
  %25 = load i32, ptr %15, align 4, !tbaa !183
  %26 = load ptr, ptr %8, align 8, !tbaa !118
  call fastcc void @mkv_put_codecprivate(ptr noundef %4, i32 noundef %25, ptr noundef %26, i32 noundef %spec.select)
  %27 = getelementptr inbounds nuw i8, ptr %3, i64 24
  %28 = load i32, ptr %27, align 8, !tbaa !170
  %.not = icmp eq i32 %28, 0
  br i1 %.not, label %29, label %36

29:                                               ; preds = %19
  %30 = call i32 @ff_alloc_extradata(ptr noundef nonnull %3, i32 noundef %2) #14
  %31 = icmp slt i32 %30, 0
  br i1 %31, label %36, label %32

32:                                               ; preds = %29
  %33 = getelementptr inbounds nuw i8, ptr %3, i64 16
  %34 = load ptr, ptr %33, align 8, !tbaa !169
  %35 = sext i32 %2 to i64
  call void @llvm.memcpy.p0.p0.i64(ptr align 1 %34, ptr align 1 %1, i64 %35, i1 false)
  br label %36

36:                                               ; preds = %13, %19, %32, %29, %7
  %.0 = phi i32 [ %11, %7 ], [ 0, %19 ], [ %30, %29 ], [ %30, %32 ], [ -28, %13 ]
  call void @ffio_reset_dyn_buf(ptr noundef %.320.val) #14
  call void @llvm.lifetime.end.p0(i64 4, ptr nonnull %10) #14
  call void @llvm.lifetime.end.p0(i64 4, ptr nonnull %9) #14
  call void @llvm.lifetime.end.p0(i64 8, ptr nonnull %8) #14
  ret i32 %.0
}